; Function Attrs: mustprogress uwtable
define noundef nonnull align 8 dereferenceable(8) ptr @_ZN8WasmEdgelsERSoo(ptr noundef nonnull align 8 dereferenceable(8) %0, i64 noundef %1, i64 noundef %2) local_unnamed_addr #0 personality ptr @__gxx_personality_v0 {
  %4 = alloca %"class.std::__cxx11::basic_ostringstream", align 8
  %5 = alloca %"class.std::__cxx11::basic_string", align 8
  call void @_ZNSt7__cxx1119basic_ostringstreamIcSt11char_traitsIcESaIcEEC1Ev(ptr noundef nonnull align 8 dereferenceable(112) %4)
  %.not.not = icmp eq i64 %2, 0
  br i1 %.not.not, label %6, label %10

6:                                                ; preds = %3
  %7 = invoke noundef nonnull align 8 dereferenceable(8) ptr @_ZNSolsEm(ptr noundef nonnull align 8 dereferenceable(8) %0, i64 noundef %1)
          to label %41 unwind label %8

8:                                                ; preds = %35, %33, %31, %.thread85, %24, %22, %.thread, %15, %6
  %9 = landingpad { ptr, i32 }
          cleanup
  br label %42

10:                                               ; preds = %3
  %.sroa.248.0.insert.ext = zext i64 %2 to i128
  %.sroa.248.0.insert.shift = shl nuw i128 %.sroa.248.0.insert.ext, 64
  %.sroa.047.0.insert.ext = zext i64 %1 to i128
  %.sroa.047.0.insert.insert = or disjoint i128 %.sroa.248.0.insert.shift, %.sroa.047.0.insert.ext
  %11 = udiv i128 %.sroa.047.0.insert.insert, 10000000000000
  %12 = mul i128 %11, 10000000000000
  %.decomposed = sub i128 %.sroa.047.0.insert.insert, %12
  %.sroa.04.0.extract.trunc.i = trunc nuw nsw i128 %.decomposed to i64
  %13 = urem i128 %11, 10000000000000
  %.sroa.04.0.extract.trunc.i69 = trunc nuw nsw i128 %13 to i64
  %14 = udiv i128 %.sroa.047.0.insert.insert, 100000000000000000000000000
  %.sroa.04.0.extract.trunc.i76 = trunc nuw nsw i128 %14 to i64
  %.not54 = icmp eq i64 %.sroa.04.0.extract.trunc.i76, 0
  br i1 %.not54, label %17, label %15

15:                                               ; preds = %10
  %16 = invoke noundef nonnull align 8 dereferenceable(8) ptr @_ZNSolsEm(ptr noundef nonnull align 8 dereferenceable(8) %4, i64 noundef %.sroa.04.0.extract.trunc.i76)
          to label %17 unwind label %8

17:                                               ; preds = %15, %10
  %.052 = phi i8 [ 0, %10 ], [ 1, %15 ]
  %.not55 = icmp eq i64 %.sroa.04.0.extract.trunc.i69, 0
  %18 = trunc nuw i8 %.052 to i1
  br i1 %.not55, label %19, label %20

19:                                               ; preds = %17
  br i1 %18, label %.thread, label %26

20:                                               ; preds = %17
  br i1 %18, label %.thread, label %24

.thread:                                          ; preds = %19, %20
  %21 = invoke noundef nonnull align 8 dereferenceable(8) ptr @_ZStlsIcSt11char_traitsIcEERSt13basic_ostreamIT_T0_ES6_St5_Setw(ptr noundef nonnull align 8 dereferenceable(8) %4, i32 13)
          to label %22 unwind label %8

22:                                               ; preds = %.thread
  %23 = invoke noundef nonnull align 8 dereferenceable(8) ptr @_ZStlsIcSt11char_traitsIcEERSt13basic_ostreamIT_T0_ES6_St8_SetfillIS3_E(ptr noundef nonnull align 8 dereferenceable(8) %21, i8 48)
          to label %24 unwind label %8

24:                                               ; preds = %22, %20
  %25 = invoke noundef nonnull align 8 dereferenceable(8) ptr @_ZNSolsEm(ptr noundef nonnull align 8 dereferenceable(8) %4, i64 noundef %.sroa.04.0.extract.trunc.i69)
          to label %26 unwind label %8

26:                                               ; preds = %24, %19
  %.1 = phi i8 [ %.052, %19 ], [ 1, %24 ]
  %.not56 = icmp eq i64 %.sroa.04.0.extract.trunc.i, 0
  %27 = trunc nuw i8 %.1 to i1
  br i1 %.not56, label %28, label %29

28:                                               ; preds = %26
  br i1 %27, label %.thread85, label %35

29:                                               ; preds = %26
  br i1 %27, label %.thread85, label %33

.thread85:                                        ; preds = %28, %29
  %30 = invoke noundef nonnull align 8 dereferenceable(8) ptr @_ZStlsIcSt11char_traitsIcEERSt13basic_ostreamIT_T0_ES6_St5_Setw(ptr noundef nonnull align 8 dereferenceable(8) %4, i32 13)
          to label %31 unwind label %8

31:                                               ; preds = %.thread85
  %32 = invoke noundef nonnull align 8 dereferenceable(8) ptr @_ZStlsIcSt11char_traitsIcEERSt13basic_ostreamIT_T0_ES6_St8_SetfillIS3_E(ptr noundef nonnull align 8 dereferenceable(8) %30, i8 48)
          to label %33 unwind label %8

33:                                               ; preds = %31, %29
  %34 = invoke noundef nonnull align 8 dereferenceable(8) ptr @_ZNSolsEm(ptr noundef nonnull align 8 dereferenceable(8) %4, i64 noundef %.sroa.04.0.extract.trunc.i)
          to label %35 unwind label %8

35:                                               ; preds = %33, %28
  invoke void @_ZNKSt7__cxx1119basic_ostringstreamIcSt11char_traitsIcESaIcEE3strEv(ptr dead_on_unwind nonnull writable sret(%"class.std::__cxx11::basic_string") align 8 %5, ptr noundef nonnull align 8 dereferenceable(112) %4)
          to label %36 unwind label %8

36:                                               ; preds = %35
  %37 = invoke noundef nonnull align 8 dereferenceable(8) ptr @_ZStlsIcSt11char_traitsIcESaIcEERSt13basic_ostreamIT_T0_ES7_RKNSt7__cxx1112basic_stringIS4_S5_T1_EE(ptr noundef nonnull align 8 dereferenceable(8) %0, ptr noundef nonnull align 8 dereferenceable(32) %5)
          to label %38 unwind label %39

38:                                               ; preds = %36
  call void @_ZNSt7__cxx1112basic_stringIcSt11char_traitsIcESaIcEED1Ev(ptr noundef nonnull align 8 dereferenceable(32) %5) #3
  br label %41

39:                                               ; preds = %36
  %40 = landingpad { ptr, i32 }
          cleanup
  call void @_ZNSt7__cxx1112basic_stringIcSt11char_traitsIcESaIcEED1Ev(ptr noundef nonnull align 8 dereferenceable(32) %5) #3
  br label %42

41:                                               ; preds = %6, %38
  %.0 = phi ptr [ %37, %38 ], [ %0, %6 ]
  call void @_ZNSt7__cxx1119basic_ostringstreamIcSt11char_traitsIcESaIcEED1Ev(ptr noundef nonnull align 8 dereferenceable(112) %4) #3
  ret ptr %.0

42:                                               ; preds = %39, %8
  %.pn = phi { ptr, i32 } [ %9, %8 ], [ %40, %39 ]
  call void @_ZNSt7__cxx1119basic_ostringstreamIcSt11char_traitsIcESaIcEED1Ev(ptr noundef nonnull align 8 dereferenceable(112) %4) #3
  resume { ptr, i32 } %.pn
}